target datalayout = "e-m:e-p270:32:32-p271:32:32-p272:64:64-i64:64-i128:128-f80:128-n8:16:32:64-S128"
target triple = "x86_64-unknown-linux-gnu"

%struct.HashtableValue = type { i64, i64 }

; Function Attrs: mustprogress nounwind uwtable
define dso_local noundef zeroext i1 @_ZeqRK14HashtableValueS1_(ptr noundef nonnull align 8 dereferenceable(16) %htv1, ptr noundef nonnull align 8 dereferenceable(16) %htv2) #0 {
entry:
  %htv1.addr = alloca ptr, align 8
  %htv2.addr = alloca ptr, align 8
  store ptr %htv1, ptr %htv1.addr, align 8
  store ptr %htv2, ptr %htv2.addr, align 8
  %0 = load ptr, ptr %htv1.addr, align 8
  %mData = getelementptr inbounds %struct.HashtableValue, ptr %0, i32 0, i32 0
  %1 = load i64, ptr %mData, align 8
  %2 = load ptr, ptr %htv2.addr, align 8
  %mData1 = getelementptr inbounds %struct.HashtableValue, ptr %2, i32 0, i32 0
  %3 = load i64, ptr %mData1, align 8
  %cmp = icmp eq i64 %1, %3
  br i1 %cmp, label %land.rhs, label %land.end

land.rhs:                                         ; preds = %entry
  %4 = load ptr, ptr %htv1.addr, align 8
  %mExtra = getelementptr inbounds %struct.HashtableValue, ptr %4, i32 0, i32 1
  %5 = load i64, ptr %mExtra, align 8
  %6 = load ptr, ptr %htv2.addr, align 8
  %mExtra2 = getelementptr inbounds %struct.HashtableValue, ptr %6, i32 0, i32 1
  %7 = load i64, ptr %mExtra2, align 8
  %cmp3 = icmp eq i64 %5, %7
  br label %land.end

land.end:                                         ; preds = %land.rhs, %entry
  %8 = phi i1 [ false, %entry ], [ %cmp3, %land.rhs ]
  ret i1 %8
}