; Function Attrs: mustprogress nofree norecurse nosync nounwind willreturn memory(argmem: read) uwtable
define dso_local noundef zeroext i1 @_ZeqRK14HashtableValueS1_(ptr nocapture noundef nonnull readonly align 8 dereferenceable(16) %htv1, ptr nocapture noundef nonnull readonly align 8 dereferenceable(16) %htv2) local_unnamed_addr #0 {
entry:
  %0 = load i64, ptr %htv1, align 8
  %1 = load i64, ptr %htv2, align 8
  %cmp = icmp eq i64 %0, %1
  %mExtra = getelementptr inbounds i8, ptr %htv1, i64 8
  %2 = load i64, ptr %mExtra, align 8
  %mExtra2 = getelementptr inbounds i8, ptr %htv2, i64 8
  %3 = load i64, ptr %mExtra2, align 8
  %cmp3 = icmp eq i64 %2, %3
  %4 = select i1 %cmp, i1 %cmp3, i1 false
  ret i1 %4
}